target datalayout = "e-m:e-p270:32:32-p271:32:32-p272:64:64-i64:64-i128:128-f80:128-n8:16:32:64-S128"
target triple = "x86_64-pc-linux-gnu"

%"class.llvm::StringRef" = type { ptr, i64 }
%"class.llvm::DWARFContext" = type <{ %"class.llvm::DIContext.base", [4 x i8], %"class.std::unique_ptr", i32, [4 x i8], %"class.std::function", %"class.std::function", %"class.std::unique_ptr.2", i8, [7 x i8] }>
%"class.llvm::DIContext.base" = type <{ ptr, i32 }>
%"class.std::unique_ptr" = type { %"struct.std::__uniq_ptr_data" }
%"struct.std::__uniq_ptr_data" = type { %"class.std::__uniq_ptr_impl" }
%"class.std::__uniq_ptr_impl" = type { %"class.std::tuple" }
%"class.std::tuple" = type { %"struct.std::_Tuple_impl" }
%"struct.std::_Tuple_impl" = type { %"struct.std::_Head_base.1" }
%"struct.std::_Head_base.1" = type { ptr }
%"class.std::function" = type { %"class.std::_Function_base", ptr }
%"class.std::_Function_base" = type { %"union.std::_Any_data", ptr }
%"union.std::_Any_data" = type { %"union.std::_Nocopy_types" }
%"union.std::_Nocopy_types" = type { { i64, i64 } }
%"class.std::unique_ptr.2" = type { %"struct.std::__uniq_ptr_data.3" }
%"struct.std::__uniq_ptr_data.3" = type { %"class.std::__uniq_ptr_impl.4" }
%"class.std::__uniq_ptr_impl.4" = type { %"class.std::tuple.5" }
%"class.std::tuple.5" = type { %"struct.std::_Tuple_impl.6" }
%"struct.std::_Tuple_impl.6" = type { %"struct.std::_Head_base.9" }
%"struct.std::_Head_base.9" = type { ptr }
%"class.llvm::DWARFDataExtractor" = type { %"class.llvm::DataExtractor.base", ptr, ptr }
%"class.llvm::DataExtractor.base" = type <{ %"class.llvm::StringRef", i8, i8 }>
%"struct.llvm::DWARFSection" = type { %"class.llvm::StringRef", i64 }
%"class.llvm::DWARFUnit" = type { ptr, ptr, ptr, %"class.llvm::DWARFUnitHeader", ptr, ptr, i64, i64, %"class.std::unique_ptr.20", ptr, %"class.llvm::StringRef", ptr, ptr, ptr, %"class.std::optional", i8, i8, ptr, %"class.std::optional.28", ptr, %"class.std::optional.36", %"class.std::vector", %"class.std::map", %"class.std::map", %"class.llvm::DenseSet", %"class.std::shared_ptr" }
%"class.llvm::DWARFUnitHeader" = type <{ i64, %"struct.llvm::dwarf::FormParams", [2 x i8], i64, i64, ptr, i64, i64, %"class.std::optional", i8, i8, [6 x i8] }>
%"struct.llvm::dwarf::FormParams" = type <{ i16, i8, i8, i8, i8 }>
%"class.std::unique_ptr.20" = type { %"struct.std::__uniq_ptr_data.21" }
%"struct.std::__uniq_ptr_data.21" = type { %"class.std::__uniq_ptr_impl.22" }
%"class.std::__uniq_ptr_impl.22" = type { %"class.std::tuple.23" }
%"class.std::tuple.23" = type { %"struct.std::_Tuple_impl.24" }
%"struct.std::_Tuple_impl.24" = type { %"struct.std::_Head_base.27" }
%"struct.std::_Head_base.27" = type { ptr }
%"class.std::optional" = type { %"struct.std::_Optional_base" }
%"struct.std::_Optional_base" = type { %"struct.std::_Optional_payload" }
%"struct.std::_Optional_payload" = type { %"struct.std::_Optional_payload_base.base", [7 x i8] }
%"struct.std::_Optional_payload_base.base" = type <{ %"union.std::_Optional_payload_base<unsigned long>::_Storage", i8 }>
%"union.std::_Optional_payload_base<unsigned long>::_Storage" = type { i64 }
%"class.std::optional.28" = type { %"struct.std::_Optional_base.29" }
%"struct.std::_Optional_base.29" = type { %"struct.std::_Optional_payload.31" }
%"struct.std::_Optional_payload.31" = type { %"struct.std::_Optional_payload_base.base.33", [7 x i8] }
%"struct.std::_Optional_payload_base.base.33" = type { %"union.std::_Optional_payload_base<llvm::StrOffsetsContributionDescriptor>::_Storage", i8 }
%"union.std::_Optional_payload_base<llvm::StrOffsetsContributionDescriptor>::_Storage" = type { %"struct.llvm::StrOffsetsContributionDescriptor" }
%"struct.llvm::StrOffsetsContributionDescriptor" = type <{ i64, i64, %"struct.llvm::dwarf::FormParams", [2 x i8] }>
%"class.std::optional.36" = type { %"struct.std::_Optional_base.37" }
%"struct.std::_Optional_base.37" = type { %"struct.std::_Optional_payload.39" }
%"struct.std::_Optional_payload.39" = type { %"struct.std::_Optional_payload_base.base.41", [7 x i8] }
%"struct.std::_Optional_payload_base.base.41" = type <{ %"union.std::_Optional_payload_base<llvm::object::SectionedAddress>::_Storage", i8 }>
%"union.std::_Optional_payload_base<llvm::object::SectionedAddress>::_Storage" = type { %"struct.llvm::object::SectionedAddress" }
%"struct.llvm::object::SectionedAddress" = type { i64, i64 }
%"class.std::vector" = type { %"struct.std::_Vector_base" }
%"struct.std::_Vector_base" = type { %"struct.std::_Vector_base<llvm::DWARFDebugInfoEntry, std::allocator<llvm::DWARFDebugInfoEntry>>::_Vector_impl" }
%"struct.std::_Vector_base<llvm::DWARFDebugInfoEntry, std::allocator<llvm::DWARFDebugInfoEntry>>::_Vector_impl" = type { %"struct.std::_Vector_base<llvm::DWARFDebugInfoEntry, std::allocator<llvm::DWARFDebugInfoEntry>>::_Vector_impl_data" }
%"struct.std::_Vector_base<llvm::DWARFDebugInfoEntry, std::allocator<llvm::DWARFDebugInfoEntry>>::_Vector_impl_data" = type { ptr, ptr, ptr }
%"class.std::map" = type { %"class.std::_Rb_tree" }
%"class.std::_Rb_tree" = type { %"struct.std::_Rb_tree<unsigned long, std::pair<const unsigned long, std::pair<unsigned long, llvm::DWARFDie>>, std::_Select1st<std::pair<const unsigned long, std::pair<unsigned long, llvm::DWARFDie>>>, std::less<unsigned long>>::_Rb_tree_impl" }
%"struct.std::_Rb_tree<unsigned long, std::pair<const unsigned long, std::pair<unsigned long, llvm::DWARFDie>>, std::_Select1st<std::pair<const unsigned long, std::pair<unsigned long, llvm::DWARFDie>>>, std::less<unsigned long>>::_Rb_tree_impl" = type { [8 x i8], %"struct.std::_Rb_tree_header" }
%"struct.std::_Rb_tree_header" = type { %"struct.std::_Rb_tree_node_base", i64 }
%"struct.std::_Rb_tree_node_base" = type { i32, ptr, ptr, ptr }
%"class.llvm::DenseSet" = type { %"class.llvm::detail::DenseSetImpl" }
%"class.llvm::detail::DenseSetImpl" = type { %"class.llvm::DenseMap" }
%"class.llvm::DenseMap" = type <{ ptr, i32, i32, i32, [4 x i8] }>
%"class.std::shared_ptr" = type { %"class.std::__shared_ptr" }
%"class.std::__shared_ptr" = type { ptr, %"class.std::__shared_count" }
%"class.std::__shared_count" = type { ptr }
%"class.llvm::DataExtractor" = type <{ %"class.llvm::StringRef", i8, i8, [6 x i8] }>

; Function Attrs: mustprogress nounwind uwtable
define linkonce_odr hidden noundef nonnull align 8 dereferenceable(8) ptr @_ZNSt10_Head_baseILm0EPKN4llvm11DWARFObjectELb0EE7_M_headERKS4_(ptr noundef nonnull align 8 dereferenceable(8) %0) #0 comdat align 2 {
  %2 = alloca ptr, align 8
  store ptr %0, ptr %2, align 8
  %3 = load ptr, ptr %2, align 8
  %4 = getelementptr inbounds nuw %"struct.std::_Head_base.9", ptr %3, i32 0, i32 0
  ret ptr %4
}

; Function Attrs: mustprogress nounwind uwtable
define linkonce_odr hidden noundef nonnull align 8 dereferenceable(8) ptr @_ZNSt11_Tuple_implILm0EJPKN4llvm11DWARFObjectESt14default_deleteIS2_EEE7_M_headERKS6_(ptr noundef nonnull align 8 dereferenceable(8) %0) #0 comdat align 2 {
  %2 = alloca ptr, align 8
  store ptr %0, ptr %2, align 8
  %3 = load ptr, ptr %2, align 8
  %4 = call noundef nonnull align 8 dereferenceable(8) ptr @_ZNSt10_Head_baseILm0EPKN4llvm11DWARFObjectELb0EE7_M_headERKS4_(ptr noundef nonnull align 8 dereferenceable(8) %3) #12
  ret ptr %4
}

; Function Attrs: mustprogress nounwind uwtable
define linkonce_odr noundef nonnull align 8 dereferenceable(8) ptr @_ZSt12__get_helperILm0EPKN4llvm11DWARFObjectEJSt14default_deleteIS2_EEERKT0_RKSt11_Tuple_implIXT_EJS6_DpT1_EE(ptr noundef nonnull align 8 dereferenceable(8) %0) #0 comdat {
  %2 = alloca ptr, align 8
  store ptr %0, ptr %2, align 8
  %3 = load ptr, ptr %2, align 8
  %4 = call noundef nonnull align 8 dereferenceable(8) ptr @_ZNSt11_Tuple_implILm0EJPKN4llvm11DWARFObjectESt14default_deleteIS2_EEE7_M_headERKS6_(ptr noundef nonnull align 8 dereferenceable(8) %3) #12
  ret ptr %4
}

; Function Attrs: mustprogress nounwind uwtable
define linkonce_odr noundef nonnull align 8 dereferenceable(8) ptr @_ZSt3getILm0EJPKN4llvm11DWARFObjectESt14default_deleteIS2_EEERKNSt13tuple_elementIXT_ESt5tupleIJDpT0_EEE4typeERKSA_(ptr noundef nonnull align 8 dereferenceable(8) %0) #0 comdat {
  %2 = alloca ptr, align 8
  store ptr %0, ptr %2, align 8
  %3 = load ptr, ptr %2, align 8
  %4 = call noundef nonnull align 8 dereferenceable(8) ptr @_ZSt12__get_helperILm0EPKN4llvm11DWARFObjectEJSt14default_deleteIS2_EEERKT0_RKSt11_Tuple_implIXT_EJS6_DpT1_EE(ptr noundef nonnull align 8 dereferenceable(8) %3) #12
  ret ptr %4
}

; Function Attrs: mustprogress nounwind uwtable
define linkonce_odr hidden noundef ptr @_ZNKSt15__uniq_ptr_implIKN4llvm11DWARFObjectESt14default_deleteIS2_EE6_M_ptrEv(ptr noundef nonnull align 8 dereferenceable(8) %0) #0 comdat align 2 {
  %2 = alloca ptr, align 8
  store ptr %0, ptr %2, align 8
  %3 = load ptr, ptr %2, align 8
  %4 = getelementptr inbounds nuw %"class.std::__uniq_ptr_impl.4", ptr %3, i32 0, i32 0
  %5 = call noundef nonnull align 8 dereferenceable(8) ptr @_ZSt3getILm0EJPKN4llvm11DWARFObjectESt14default_deleteIS2_EEERKNSt13tuple_elementIXT_ESt5tupleIJDpT0_EEE4typeERKSA_(ptr noundef nonnull align 8 dereferenceable(8) %4) #12
  %6 = load ptr, ptr %5, align 8
  ret ptr %6
}

; Function Attrs: mustprogress nounwind uwtable
define linkonce_odr hidden noundef ptr @_ZNKSt10unique_ptrIKN4llvm11DWARFObjectESt14default_deleteIS2_EE3getEv(ptr noundef nonnull align 8 dereferenceable(8) %0) #0 comdat align 2 {
  %2 = alloca ptr, align 8
  store ptr %0, ptr %2, align 8
  %3 = load ptr, ptr %2, align 8
  %4 = getelementptr inbounds nuw %"class.std::unique_ptr.2", ptr %3, i32 0, i32 0
  %5 = call noundef ptr @_ZNKSt15__uniq_ptr_implIKN4llvm11DWARFObjectESt14default_deleteIS2_EE6_M_ptrEv(ptr noundef nonnull align 8 dereferenceable(8) %4) #12
  ret ptr %5
}

; Function Attrs: mustprogress nounwind uwtable
define linkonce_odr hidden void @_ZN4llvm13DataExtractorC2ENS_9StringRefEbh(ptr noundef nonnull align 8 dereferenceable(18) %0, ptr %1, i64 %2, i1 noundef zeroext %3, i8 noundef zeroext %4) unnamed_addr #0 comdat align 2 {
  %6 = alloca %"class.llvm::StringRef", align 8
  %7 = alloca ptr, align 8
  %8 = alloca i8, align 1
  %9 = alloca i8, align 1
  %10 = getelementptr inbounds nuw { ptr, i64 }, ptr %6, i32 0, i32 0
  store ptr %1, ptr %10, align 8
  %11 = getelementptr inbounds nuw { ptr, i64 }, ptr %6, i32 0, i32 1
  store i64 %2, ptr %11, align 8
  store ptr %0, ptr %7, align 8
  %12 = zext i1 %3 to i8
  store i8 %12, ptr %8, align 1
  store i8 %4, ptr %9, align 1
  %13 = load ptr, ptr %7, align 8
  %14 = getelementptr inbounds nuw %"class.llvm::DataExtractor", ptr %13, i32 0, i32 0
  call void @llvm.memcpy.p0.p0.i64(ptr align 8 %14, ptr align 8 %6, i64 16, i1 false)
  %15 = getelementptr inbounds nuw %"class.llvm::DataExtractor", ptr %13, i32 0, i32 1
  %16 = load i8, ptr %8, align 1
  %17 = trunc i8 %16 to i1
  %18 = zext i1 %17 to i8
  store i8 %18, ptr %15, align 8
  %19 = getelementptr inbounds nuw %"class.llvm::DataExtractor", ptr %13, i32 0, i32 2
  %20 = load i8, ptr %9, align 1
  store i8 %20, ptr %19, align 1
  ret void
}

; Function Attrs: mustprogress nounwind uwtable
define linkonce_odr hidden noundef zeroext i8 @_ZNK4llvm15DWARFUnitHeader18getAddressByteSizeEv(ptr noundef nonnull align 8 dereferenceable(74) %0) #0 comdat align 2 {
  %2 = alloca ptr, align 8
  store ptr %0, ptr %2, align 8
  %3 = load ptr, ptr %2, align 8
  %4 = getelementptr inbounds nuw %"class.llvm::DWARFUnitHeader", ptr %3, i32 0, i32 1
  %5 = getelementptr inbounds nuw %"struct.llvm::dwarf::FormParams", ptr %4, i32 0, i32 1
  %6 = load i8, ptr %5, align 2
  ret i8 %6
}

; Function Attrs: mustprogress nounwind uwtable
define linkonce_odr hidden noundef nonnull align 8 dereferenceable(32) ptr @_ZNKSt10unique_ptrIKN4llvm11DWARFObjectESt14default_deleteIS2_EEdeEv(ptr noundef nonnull align 8 dereferenceable(8) %0) #0 comdat align 2 {
  %2 = alloca ptr, align 8
  store ptr %0, ptr %2, align 8
  %3 = load ptr, ptr %2, align 8
  br label %4

4:                                                ; preds = %1
  br label %5

5:                                                ; preds = %4
  %6 = call noundef ptr @_ZNKSt10unique_ptrIKN4llvm11DWARFObjectESt14default_deleteIS2_EE3getEv(ptr noundef nonnull align 8 dereferenceable(8) %3) #12
  ret ptr %6
}

; Function Attrs: mustprogress nounwind uwtable
define linkonce_odr hidden void @_ZN4llvm18DWARFDataExtractorC2ERKNS_11DWARFObjectERKNS_12DWARFSectionEbh(ptr noundef nonnull align 8 dereferenceable(40) %0, ptr noundef nonnull align 8 dereferenceable(32) %1, ptr noundef nonnull align 8 dereferenceable(24) %2, i1 noundef zeroext %3, i8 noundef zeroext %4) unnamed_addr #0 comdat align 2 {
  %6 = alloca ptr, align 8
  %7 = alloca ptr, align 8
  %8 = alloca ptr, align 8
  %9 = alloca i8, align 1
  %10 = alloca i8, align 1
  %11 = alloca %"class.llvm::StringRef", align 8
  store ptr %0, ptr %6, align 8
  store ptr %1, ptr %7, align 8
  store ptr %2, ptr %8, align 8
  %12 = zext i1 %3 to i8
  store i8 %12, ptr %9, align 1
  store i8 %4, ptr %10, align 1
  %13 = load ptr, ptr %6, align 8
  %14 = load ptr, ptr %8, align 8
  %15 = getelementptr inbounds nuw %"struct.llvm::DWARFSection", ptr %14, i32 0, i32 0
  call void @llvm.memcpy.p0.p0.i64(ptr align 8 %11, ptr align 8 %15, i64 16, i1 false)
  %16 = load i8, ptr %9, align 1
  %17 = trunc i8 %16 to i1
  %18 = load i8, ptr %10, align 1
  %19 = getelementptr inbounds nuw { ptr, i64 }, ptr %11, i32 0, i32 0
  %20 = load ptr, ptr %19, align 8
  %21 = getelementptr inbounds nuw { ptr, i64 }, ptr %11, i32 0, i32 1
  %22 = load i64, ptr %21, align 8
  call void @_ZN4llvm13DataExtractorC2ENS_9StringRefEbh(ptr noundef nonnull align 8 dereferenceable(18) %13, ptr %20, i64 %22, i1 noundef zeroext %17, i8 noundef zeroext %18)
  %23 = getelementptr inbounds nuw %"class.llvm::DWARFDataExtractor", ptr %13, i32 0, i32 1
  %24 = load ptr, ptr %7, align 8
  store ptr %24, ptr %23, align 8
  %25 = getelementptr inbounds nuw %"class.llvm::DWARFDataExtractor", ptr %13, i32 0, i32 2
  %26 = load ptr, ptr %8, align 8
  store ptr %26, ptr %25, align 8
  ret void
}

; Function Attrs: mustprogress nounwind uwtable
define linkonce_odr hidden noundef zeroext i8 @_ZNK4llvm9DWARFUnit18getAddressByteSizeEv(ptr noundef nonnull align 8 dereferenceable(448) %0) #0 comdat align 2 {
  %2 = alloca ptr, align 8
  store ptr %0, ptr %2, align 8
  %3 = load ptr, ptr %2, align 8
  %4 = getelementptr inbounds nuw %"class.llvm::DWARFUnit", ptr %3, i32 0, i32 3
  %5 = call noundef zeroext i8 @_ZNK4llvm15DWARFUnitHeader18getAddressByteSizeEv(ptr noundef nonnull align 8 dereferenceable(74) %4)
  ret i8 %5
}

; Function Attrs: mustprogress nounwind uwtable
define linkonce_odr hidden noundef nonnull align 8 dereferenceable(32) ptr @_ZNK4llvm12DWARFContext11getDWARFObjEv(ptr noundef nonnull align 8 dereferenceable(105) %0) #0 comdat align 2 {
  %2 = alloca ptr, align 8
  store ptr %0, ptr %2, align 8
  %3 = load ptr, ptr %2, align 8
  %4 = getelementptr inbounds nuw %"class.llvm::DWARFContext", ptr %3, i32 0, i32 7
  %5 = call noundef nonnull align 8 dereferenceable(32) ptr @_ZNKSt10unique_ptrIKN4llvm11DWARFObjectESt14default_deleteIS2_EEdeEv(ptr noundef nonnull align 8 dereferenceable(8) %4) #12
  ret ptr %5
}

; Function Attrs: mustprogress nounwind uwtable
define dso_local void @_ZNK4llvm9DWARFUnit21getDebugInfoExtractorEv(ptr dead_on_unwind noalias writable sret(%"class.llvm::DWARFDataExtractor") align 8 %0, ptr noundef nonnull align 8 dereferenceable(448) %1) #0 align 2 {
  %3 = alloca ptr, align 8
  store ptr %1, ptr %3, align 8
  %4 = load ptr, ptr %3, align 8
  %5 = getelementptr inbounds nuw %"class.llvm::DWARFUnit", ptr %4, i32 0, i32 1
  %6 = load ptr, ptr %5, align 8
  %7 = call noundef nonnull align 8 dereferenceable(32) ptr @_ZNK4llvm12DWARFContext11getDWARFObjEv(ptr noundef nonnull align 8 dereferenceable(105) %6)
  %8 = getelementptr inbounds nuw %"class.llvm::DWARFUnit", ptr %4, i32 0, i32 2
  %9 = load ptr, ptr %8, align 8
  %10 = getelementptr inbounds nuw %"class.llvm::DWARFUnit", ptr %4, i32 0, i32 15
  %11 = load i8, ptr %10, align 8
  %12 = trunc i8 %11 to i1
  %13 = call noundef zeroext i8 @_ZNK4llvm9DWARFUnit18getAddressByteSizeEv(ptr noundef nonnull align 8 dereferenceable(448) %4)
  call void @_ZN4llvm18DWARFDataExtractorC2ERKNS_11DWARFObjectERKNS_12DWARFSectionEbh(ptr noundef nonnull align 8 dereferenceable(40) %0, ptr noundef nonnull align 8 dereferenceable(32) %7, ptr noundef nonnull align 8 dereferenceable(24) %9, i1 noundef zeroext %12, i8 noundef zeroext %13)
  ret void
}