; Function Attrs: mustprogress nofree norecurse nosync nounwind willreturn memory(read, argmem: readwrite, inaccessiblemem: none) uwtable
define dso_local void @_ZNK4llvm9DWARFUnit21getDebugInfoExtractorEv(ptr dead_on_unwind noalias nocapture writable writeonly sret(%"class.llvm::DWARFDataExtractor") align 8 %0, ptr nocapture noundef nonnull readonly align 8 dereferenceable(448) %1) local_unnamed_addr #5 align 2 {
  %3 = getelementptr inbounds nuw i8, ptr %1, i64 8
  %4 = load ptr, ptr %3, align 8
  %5 = getelementptr inbounds nuw i8, ptr %4, i64 96
  %6 = load ptr, ptr %5, align 8
  %7 = getelementptr inbounds nuw i8, ptr %1, i64 16
  %8 = load ptr, ptr %7, align 8
  %9 = getelementptr inbounds nuw i8, ptr %1, i64 208
  %10 = load i8, ptr %9, align 8
  %11 = getelementptr inbounds i8, ptr %1, i64 34
  %12 = load i8, ptr %11, align 2
  %.sroa.0.0.copyload.i = load ptr, ptr %8, align 8
  %.sroa.2.0..sroa_idx.i = getelementptr inbounds i8, ptr %8, i64 8
  %.sroa.2.0.copyload.i = load i64, ptr %.sroa.2.0..sroa_idx.i, align 8
  %13 = and i8 %10, 1
  store ptr %.sroa.0.0.copyload.i, ptr %0, align 8
  %.sroa.2.0..sroa_idx.i.i = getelementptr inbounds i8, ptr %0, i64 8
  store i64 %.sroa.2.0.copyload.i, ptr %.sroa.2.0..sroa_idx.i.i, align 8
  %14 = getelementptr inbounds nuw i8, ptr %0, i64 16
  store i8 %13, ptr %14, align 8
  %15 = getelementptr inbounds nuw i8, ptr %0, i64 17
  store i8 %12, ptr %15, align 1
  %16 = getelementptr inbounds nuw i8, ptr %0, i64 24
  store ptr %6, ptr %16, align 8
  %17 = getelementptr inbounds nuw i8, ptr %0, i64 32
  store ptr %8, ptr %17, align 8
  ret void
}